target datalayout = "e-m:e-p270:32:32-p271:32:32-p272:64:64-i64:64-i128:128-f80:128-n8:16:32:64-S128"
target triple = "x86_64-pc-linux-gnu"

%struct.psa_cipher_operation_s = type { i32, i8, i8, %union.psa_driver_cipher_context_t }
%union.psa_driver_cipher_context_t = type { %struct.mbedtls_psa_cipher_operation_t }
%struct.mbedtls_psa_cipher_operation_t = type { i32, i8, i8, %union.anon }
%union.anon = type { %struct.mbedtls_cipher_context_t }
%struct.mbedtls_cipher_context_t = type { ptr, i32, i32, ptr, ptr, [16 x i8], i64, [16 x i8], i64, ptr, ptr }

; Function Attrs: nounwind uwtable
define hidden i32 @psa_driver_wrapper_cipher_abort(ptr noundef %0) #0 {
  %2 = alloca i32, align 4
  %3 = alloca ptr, align 8
  %4 = alloca i32, align 4
  store ptr %0, ptr %3, align 8
  store i32 -151, ptr %4, align 4
  %5 = load ptr, ptr %3, align 8
  %6 = getelementptr inbounds %struct.psa_cipher_operation_s, ptr %5, i32 0, i32 0
  %7 = load i32, ptr %6, align 8
  switch i32 %7, label %12 [
    i32 1, label %8
  ]

8:                                                ; preds = %1
  %9 = load ptr, ptr %3, align 8
  %10 = getelementptr inbounds %struct.psa_cipher_operation_s, ptr %9, i32 0, i32 3
  %11 = call i32 @mbedtls_psa_cipher_abort(ptr noundef %10)
  store i32 %11, ptr %2, align 4
  br label %13

12:                                               ; preds = %1
  store i32 -135, ptr %2, align 4
  br label %13

13:                                               ; preds = %12, %8
  %14 = load i32, ptr %2, align 4
  ret i32 %14
}